target datalayout = "e-m:e-p270:32:32-p271:32:32-p272:64:64-i64:64-i128:128-f80:128-n8:16:32:64-S128"
target triple = "x86_64-pc-linux-gnu"

%class.V3GraphEdge = type { ptr, %class.V3ListLinks.2, %class.V3ListLinks.2, ptr, ptr, i32, i8, %union.anon.3 }
%class.V3ListLinks.2 = type { ptr, ptr }
%union.anon.3 = type { ptr }

; Function Attrs: mustprogress nounwind uwtable
define linkonce_odr dso_local noundef ptr @_ZNK11V3GraphEdge3topEv(ptr noundef nonnull align 8 dereferenceable(72) %0) #5 comdat align 2 {
  %2 = alloca ptr, align 8
  store ptr %0, ptr %2, align 8, !tbaa !41
  %3 = load ptr, ptr %2, align 8
  %4 = getelementptr inbounds nuw %class.V3GraphEdge, ptr %3, i32 0, i32 4
  %5 = load ptr, ptr %4, align 8, !tbaa !50
  ret ptr %5
}

; Function Attrs: mustprogress uwtable
define dso_local noundef i32 @_ZNK11V3GraphEdge7sortCmpEPKS_(ptr noundef nonnull align 8 dereferenceable(72) %0, ptr noundef %1) unnamed_addr #4 align 2 {
  %3 = alloca i32, align 4
  %4 = alloca ptr, align 8
  %5 = alloca ptr, align 8
  store ptr %0, ptr %4, align 8, !tbaa !41
  store ptr %1, ptr %5, align 8, !tbaa !41
  %6 = load ptr, ptr %4, align 8
  %7 = getelementptr inbounds nuw %class.V3GraphEdge, ptr %6, i32 0, i32 5
  %8 = load i32, ptr %7, align 8, !tbaa !62
  %9 = icmp ne i32 %8, 0
  br i1 %9, label %10, label %15

10:                                               ; preds = %2
  %11 = load ptr, ptr %5, align 8, !tbaa !41
  %12 = getelementptr inbounds nuw %class.V3GraphEdge, ptr %11, i32 0, i32 5
  %13 = load i32, ptr %12, align 8, !tbaa !62
  %14 = icmp ne i32 %13, 0
  br i1 %14, label %16, label %15

15:                                               ; preds = %10, %2
  store i32 0, ptr %3, align 4
  br label %24

16:                                               ; preds = %10
  %17 = call noundef ptr @_ZNK11V3GraphEdge3topEv(ptr noundef nonnull align 8 dereferenceable(72) %6)
  %18 = load ptr, ptr %5, align 8, !tbaa !41
  %19 = call noundef ptr @_ZNK11V3GraphEdge3topEv(ptr noundef nonnull align 8 dereferenceable(72) %18)
  %20 = load ptr, ptr %17, align 8, !tbaa !11
  %21 = getelementptr inbounds ptr, ptr %20, i64 12
  %22 = load ptr, ptr %21, align 8
  %23 = call noundef i32 %22(ptr noundef nonnull align 8 dereferenceable(80) %17, ptr noundef %19)
  store i32 %23, ptr %3, align 4
  br label %24

24:                                               ; preds = %16, %15
  %25 = load i32, ptr %3, align 4
  ret i32 %25
}