; Function Attrs: mustprogress uwtable
define dso_local noundef i32 @_ZNK11V3GraphEdge7sortCmpEPKS_(ptr noundef nonnull readonly align 8 captures(none) dereferenceable(72) %0, ptr noundef readonly captures(none) %1) unnamed_addr #4 align 2 {
  %3 = getelementptr inbounds nuw i8, ptr %0, i64 56
  %4 = load i32, ptr %3, align 8, !tbaa !40
  %.not = icmp eq i32 %4, 0
  br i1 %.not, label %17, label %5

5:                                                ; preds = %2
  %6 = getelementptr inbounds nuw i8, ptr %1, i64 56
  %7 = load i32, ptr %6, align 8, !tbaa !40
  %.not3 = icmp eq i32 %7, 0
  br i1 %.not3, label %17, label %8

8:                                                ; preds = %5
  %9 = getelementptr inbounds nuw i8, ptr %0, i64 48
  %10 = load ptr, ptr %9, align 8, !tbaa !34
  %11 = getelementptr inbounds nuw i8, ptr %1, i64 48
  %12 = load ptr, ptr %11, align 8, !tbaa !34
  %13 = load ptr, ptr %10, align 8, !tbaa !4
  %14 = getelementptr inbounds nuw i8, ptr %13, i64 96
  %15 = load ptr, ptr %14, align 8
  %16 = tail call noundef i32 %15(ptr noundef nonnull align 8 dereferenceable(80) %10, ptr noundef %12)
  br label %17

17:                                               ; preds = %2, %5, %8
  %.0 = phi i32 [ %16, %8 ], [ 0, %5 ], [ 0, %2 ]
  ret i32 %.0
}